target datalayout = "e-m:e-p270:32:32-p271:32:32-p272:64:64-i64:64-i128:128-f80:128-n8:16:32:64-S128"
target triple = "x86_64-pc-linux-gnu"

%struct.AVBPrint = type { ptr, i32, i32, i32, [1 x i8], [1000 x i8] }

@.str.148 = private unnamed_addr constant [3 x i8] c"%s\00", align 1

; Function Attrs: inlinehint nounwind uwtable
define internal i32 @av_bprint_is_complete(ptr noundef %0) #11 {
  %2 = alloca ptr, align 8
  store ptr %0, ptr %2, align 8, !tbaa !217
  %3 = load ptr, ptr %2, align 8, !tbaa !217
  %4 = getelementptr inbounds nuw %struct.AVBPrint, ptr %3, i32 0, i32 1
  %5 = load i32, ptr %4, align 8, !tbaa !219
  %6 = load ptr, ptr %2, align 8, !tbaa !217
  %7 = getelementptr inbounds nuw %struct.AVBPrint, ptr %6, i32 0, i32 2
  %8 = load i32, ptr %7, align 4, !tbaa !220
  %9 = icmp ult i32 %5, %8
  %10 = zext i1 %9 to i32
  ret i32 %10
}

; Function Attrs: nounwind uwtable
define internal i32 @replace_str_data_in_filename(ptr noundef %0, ptr noundef %1, i8 noundef signext %2, ptr noundef %3) #0 {
  %5 = alloca i32, align 4
  %6 = alloca ptr, align 8
  %7 = alloca ptr, align 8
  %8 = alloca i8, align 1
  %9 = alloca ptr, align 8
  %10 = alloca ptr, align 8
  %11 = alloca i8, align 1
  %12 = alloca i32, align 4
  %13 = alloca i32, align 4
  %14 = alloca %struct.AVBPrint, align 8
  %15 = alloca i32, align 4
  %16 = alloca i32, align 4
  store ptr %0, ptr %6, align 8, !tbaa !214
  store ptr %1, ptr %7, align 8, !tbaa !73
  store i8 %2, ptr %8, align 1, !tbaa !109
  store ptr %3, ptr %9, align 8, !tbaa !73
  call void @llvm.lifetime.start.p0(i64 8, ptr %10) #15
  call void @llvm.lifetime.start.p0(i64 1, ptr %11) #15
  call void @llvm.lifetime.start.p0(i64 4, ptr %12) #15
  call void @llvm.lifetime.start.p0(i64 4, ptr %13) #15
  store i32 0, ptr %13, align 4, !tbaa !30
  call void @llvm.lifetime.start.p0(i64 1024, ptr %14) #15
  call void @llvm.lifetime.start.p0(i64 4, ptr %15) #15
  call void @av_bprint_init(ptr noundef %14, i32 noundef 0, i32 noundef -1)
  %17 = load ptr, ptr %7, align 8, !tbaa !73
  store ptr %17, ptr %10, align 8, !tbaa !73
  br label %18

18:                                               ; preds = %66, %4
  %19 = load ptr, ptr %10, align 8, !tbaa !73
  %20 = load i8, ptr %19, align 1, !tbaa !109
  store i8 %20, ptr %11, align 1, !tbaa !109
  %21 = load i8, ptr %11, align 1, !tbaa !109
  %22 = sext i8 %21 to i32
  %23 = icmp eq i32 %22, 0
  br i1 %23, label %24, label %25

24:                                               ; preds = %18
  br label %67

25:                                               ; preds = %18
  %26 = load i8, ptr %11, align 1, !tbaa !109
  %27 = sext i8 %26 to i32
  %28 = icmp eq i32 %27, 37
  br i1 %28, label %29, label %36

29:                                               ; preds = %25
  %30 = load ptr, ptr %10, align 8, !tbaa !73
  %31 = getelementptr inbounds i8, ptr %30, i64 1
  %32 = load i8, ptr %31, align 1, !tbaa !109
  %33 = sext i8 %32 to i32
  %34 = icmp eq i32 %33, 37
  br i1 %34, label %35, label %36

35:                                               ; preds = %29
  store i32 2, ptr %12, align 4, !tbaa !30
  br label %56

36:                                               ; preds = %29, %25
  %37 = load i8, ptr %11, align 1, !tbaa !109
  %38 = sext i8 %37 to i32
  %39 = icmp eq i32 %38, 37
  br i1 %39, label %40, label %54

40:                                               ; preds = %36
  %41 = load ptr, ptr %10, align 8, !tbaa !73
  %42 = getelementptr inbounds i8, ptr %41, i64 1
  %43 = load i8, ptr %42, align 1, !tbaa !109
  %44 = sext i8 %43 to i32
  %45 = load i8, ptr %8, align 1, !tbaa !109
  %46 = sext i8 %45 to i32
  %47 = icmp eq i32 %44, %46
  br i1 %47, label %48, label %54

48:                                               ; preds = %40
  %49 = load ptr, ptr %9, align 8, !tbaa !73
  call void (ptr, ptr, ...) @av_bprintf(ptr noundef %14, ptr noundef @.str.148, ptr noundef %49)
  %50 = load ptr, ptr %10, align 8, !tbaa !73
  %51 = getelementptr inbounds i8, ptr %50, i64 2
  store ptr %51, ptr %10, align 8, !tbaa !73
  store i32 0, ptr %12, align 4, !tbaa !30
  %52 = load i32, ptr %13, align 4, !tbaa !30
  %53 = add nsw i32 %52, 1
  store i32 %53, ptr %13, align 4, !tbaa !30
  br label %55

54:                                               ; preds = %40, %36
  store i32 1, ptr %12, align 4, !tbaa !30
  br label %55

55:                                               ; preds = %54, %48
  br label %56

56:                                               ; preds = %55, %35
  %57 = load i32, ptr %12, align 4, !tbaa !30
  %58 = icmp sgt i32 %57, 0
  br i1 %58, label %59, label %66

59:                                               ; preds = %56
  %60 = load ptr, ptr %10, align 8, !tbaa !73
  %61 = load i32, ptr %12, align 4, !tbaa !30
  call void @av_bprint_append_data(ptr noundef %14, ptr noundef %60, i32 noundef %61)
  %62 = load i32, ptr %12, align 4, !tbaa !30
  %63 = load ptr, ptr %10, align 8, !tbaa !73
  %64 = sext i32 %62 to i64
  %65 = getelementptr inbounds i8, ptr %63, i64 %64
  store ptr %65, ptr %10, align 8, !tbaa !73
  br label %66

66:                                               ; preds = %59, %56
  br label %18

67:                                               ; preds = %24
  %68 = call i32 @av_bprint_is_complete(ptr noundef %14)
  %69 = icmp ne i32 %68, 0
  br i1 %69, label %72, label %70

70:                                               ; preds = %67
  %71 = call i32 @av_bprint_finalize(ptr noundef %14, ptr noundef null)
  store i32 -12, ptr %5, align 4
  store i32 1, ptr %16, align 4
  br label %80

72:                                               ; preds = %67
  %73 = load ptr, ptr %6, align 8, !tbaa !214
  %74 = call i32 @av_bprint_finalize(ptr noundef %14, ptr noundef %73)
  store i32 %74, ptr %15, align 4, !tbaa !30
  %75 = icmp slt i32 %74, 0
  br i1 %75, label %76, label %78

76:                                               ; preds = %72
  %77 = load i32, ptr %15, align 4, !tbaa !30
  store i32 %77, ptr %5, align 4
  store i32 1, ptr %16, align 4
  br label %80

78:                                               ; preds = %72
  %79 = load i32, ptr %13, align 4, !tbaa !30
  store i32 %79, ptr %5, align 4
  store i32 1, ptr %16, align 4
  br label %80

80:                                               ; preds = %78, %76, %70
  call void @llvm.lifetime.end.p0(i64 4, ptr %15) #15
  call void @llvm.lifetime.end.p0(i64 1024, ptr %14) #15
  call void @llvm.lifetime.end.p0(i64 4, ptr %13) #15
  call void @llvm.lifetime.end.p0(i64 4, ptr %12) #15
  call void @llvm.lifetime.end.p0(i64 1, ptr %11) #15
  call void @llvm.lifetime.end.p0(i64 8, ptr %10) #15
  %81 = load i32, ptr %5, align 4
  ret i32 %81
}