; Function Attrs: nounwind uwtable
define internal fastcc i32 @replace_str_data_in_filename(ptr noundef %0, ptr noundef %1, ptr noundef nonnull %2) unnamed_addr #0 {
  %4 = alloca %struct.AVBPrint, align 8
  call void @llvm.lifetime.start.p0(i64 1024, ptr nonnull %4) #17
  call void @av_bprint_init(ptr noundef nonnull %4, i32 noundef 0, i32 noundef -1) #17
  br label %.outer

.outer:                                           ; preds = %.critedge, %3
  %.021.ph = phi ptr [ %10, %.critedge ], [ %1, %3 ]
  %.019.ph = phi i32 [ %11, %.critedge ], [ 0, %3 ]
  br label %5

5:                                                ; preds = %.outer, %12
  %.021 = phi ptr [ %14, %12 ], [ %.021.ph, %.outer ]
  %6 = load i8, ptr %.021, align 1, !tbaa !102
  switch i8 %6, label %12 [
    i8 0, label %15
    i8 37, label %7
  ]

7:                                                ; preds = %5
  %8 = getelementptr inbounds nuw i8, ptr %.021, i64 1
  %9 = load i8, ptr %8, align 1, !tbaa !102
  switch i8 %9, label %.fold.split [
    i8 37, label %12
    i8 118, label %.critedge
  ]

.critedge:                                        ; preds = %7
  call void (ptr, ptr, ...) @av_bprintf(ptr noundef nonnull %4, ptr noundef nonnull @.str.148, ptr noundef nonnull %2) #17
  %10 = getelementptr inbounds nuw i8, ptr %.021, i64 2
  %11 = add nuw nsw i32 %.019.ph, 1
  br label %.outer

.fold.split:                                      ; preds = %7
  br label %12

12:                                               ; preds = %7, %.fold.split, %5
  %.020.ph = phi i32 [ 2, %7 ], [ 1, %5 ], [ 1, %.fold.split ]
  call void @av_bprint_append_data(ptr noundef nonnull %4, ptr noundef nonnull %.021, i32 noundef %.020.ph) #17
  %13 = zext nneg i32 %.020.ph to i64
  %14 = getelementptr inbounds nuw i8, ptr %.021, i64 %13
  br label %5

15:                                               ; preds = %5
  %16 = getelementptr inbounds nuw i8, ptr %4, i64 8
  %.val = load i32, ptr %16, align 8, !tbaa !227
  %17 = getelementptr inbounds nuw i8, ptr %4, i64 12
  %.val25 = load i32, ptr %17, align 4, !tbaa !229
  %.not = icmp ult i32 %.val, %.val25
  br i1 %.not, label %20, label %18

18:                                               ; preds = %15
  %19 = call i32 @av_bprint_finalize(ptr noundef nonnull %4, ptr noundef null) #17
  br label %23

20:                                               ; preds = %15
  %21 = call i32 @av_bprint_finalize(ptr noundef nonnull %4, ptr noundef %0) #17
  %22 = icmp slt i32 %21, 0
  %..019 = select i1 %22, i32 %21, i32 %.019.ph
  br label %23

23:                                               ; preds = %20, %18
  %.0 = phi i32 [ -12, %18 ], [ %..019, %20 ]
  call void @llvm.lifetime.end.p0(i64 1024, ptr nonnull %4) #17
  ret i32 %.0
}